GAS LISTING /tmp/ccCtbbri.s 			page 1


   1              		.file	"main.cpp"
   2              		.option pic
   3              		.option norelax
   4              		.text
   5              	.Ltext0:
   6              		.section	.rodata.str1.8,"aMS",@progbits,1
   7              		.align	3
   8              	.LC0:
   9 0000 0A00     		.string	"\n"
  10              		.text
  11              		.align	2
  12              		.globl	main
  14              	main:
  15              	.LFB0:
  16              		.file 1 "src/main.cpp"
   1:src/main.cpp  **** #include "../h/MemoryAllocator.hpp"
   2:src/main.cpp  **** #include "../h/print.hpp"
   3:src/main.cpp  **** int main()
   4:src/main.cpp  **** {
  17              		.loc 1 4 1
  18              		.cfi_startproc
  19 0000 130101FF 		addi	sp,sp,-16
  20              		.cfi_def_cfa_offset 16
  21 0004 23341100 		sd	ra,8(sp)
  22 0008 23308100 		sd	s0,0(sp)
  23              		.cfi_offset 1, -8
  24              		.cfi_offset 8, -16
  25 000c 13040101 		addi	s0,sp,16
  26              		.cfi_def_cfa 8, 0
   5:src/main.cpp  ****     MemoryAllocator::getInstance();
  27              		.loc 1 5 5
  28              		.loc 1 5 34 is_stmt 0
  29 0010 97000000 		call	_ZN15MemoryAllocator11getInstanceEv@plt
  29      E7800000 
  30              	.LVL0:
   6:src/main.cpp  ****     printInteger(sizeof(MemoryAllocator::BlockHeader));
  31              		.loc 1 6 5 is_stmt 1
  32              		.loc 1 6 17 is_stmt 0
  33 0018 13058001 		li	a0,24
  34 001c 97000000 		call	_Z12printIntegerm@plt
  34      E7800000 
  35              	.LVL1:
   7:src/main.cpp  ****     printString("\n");
  36              		.loc 1 7 5 is_stmt 1
  37              		.loc 1 7 16 is_stmt 0
  38 0024 17050000 		lla	a0,.LC0
  38      13050500 
  39 002c 97000000 		call	_Z11printStringPKc@plt
  39      E7800000 
  40              	.LVL2:
   8:src/main.cpp  ****     printInteger(sizeof(MemoryAllocator));
  41              		.loc 1 8 5 is_stmt 1
  42              		.loc 1 8 17 is_stmt 0
  43 0034 13051000 		li	a0,1
  44 0038 97000000 		call	_Z12printIntegerm@plt
  44      E7800000 
  45              	.LVL3:
GAS LISTING /tmp/ccCtbbri.s 			page 2


   9:src/main.cpp  ****     printString("\n");
  46              		.loc 1 9 5 is_stmt 1
  47              		.loc 1 9 16 is_stmt 0
  48 0040 17050000 		lla	a0,.LC0
  48      13050500 
  49 0048 97000000 		call	_Z11printStringPKc@plt
  49      E7800000 
  50              	.LVL4:
  10:src/main.cpp  ****     return 0;
  51              		.loc 1 10 5 is_stmt 1
  11:src/main.cpp  **** }...
  52              		.loc 1 11 1 is_stmt 0
  53 0050 13050000 		li	a0,0
  54 0054 83308100 		ld	ra,8(sp)
  55              		.cfi_restore 1
  56 0058 03340100 		ld	s0,0(sp)
  57              		.cfi_restore 8
  58              		.cfi_def_cfa 2, 16
  59 005c 13010101 		addi	sp,sp,16
  60              		.cfi_def_cfa_offset 0
  61 0060 67800000 		jr	ra
  62              		.cfi_endproc
  63              	.LFE0:
  65              	.Letext0:
  66              		.file 2 "src/../h/../lib/hw.h"
  67              		.file 3 "src/../h/MemoryAllocator.hpp"
  68              		.file 4 "src/../h/print.hpp"
GAS LISTING /tmp/ccCtbbri.s 			page 3

